target datalayout = "e-m:e-p270:32:32-p271:32:32-p272:64:64-i64:64-i128:128-f80:128-n8:16:32:64-S128"
target triple = "x86_64-pc-linux-gnu"

%struct.mempool_s = type { i64, i64, i64, i64, i8, ptr, ptr, ptr, ptr, %struct.sq_queue_s, %struct.sq_queue_s, %struct.sq_queue_s, i64, i8, %struct.sem_s, %struct.mempool_procfs_entry_s }
%struct.sq_queue_s = type { ptr, ptr }
%struct.sem_s = type { i16, i8, %struct.dq_queue_s, ptr }
%struct.dq_queue_s = type { ptr, ptr }
%struct.mempool_procfs_entry_s = type { ptr, ptr }
%struct.sq_entry_s = type { ptr }
%struct.mallinfo_task = type { i32, i32 }
%struct.malltask = type { i32 }

; Function Attrs: nounwind uwtable
define internal void @up_irq_enable() #0 {
  call void asm sideeffect "sti", "~{memory},~{dirflag},~{fpsr},~{flags}"() #3, !srcloc !14
  ret void
}

; Function Attrs: nounwind uwtable
define internal zeroext i1 @up_irq_enabled(i64 noundef %0) #0 {
  %2 = alloca i64, align 8
  store i64 %0, ptr %2, align 8
  %3 = load i64, ptr %2, align 8
  %4 = and i64 %3, 512
  %5 = icmp ne i64 %4, 0
  ret i1 %5
}

; Function Attrs: nounwind uwtable
define internal void @up_irq_disable() #0 {
  call void asm sideeffect "cli", "~{memory},~{dirflag},~{fpsr},~{flags}"() #3, !srcloc !12
  ret void
}

; Function Attrs: nounwind uwtable
define internal i64 @irqflags() #0 {
  %1 = alloca i64, align 8
  call void asm sideeffect "\09pushfq\0A\09popq $0\0A", "=*rm,~{memory},~{dirflag},~{fpsr},~{flags}"(ptr elementtype(i64) %1) #3, !srcloc !13
  %2 = load i64, ptr %1, align 8
  ret i64 %2
}

; Function Attrs: nounwind uwtable
define internal void @up_irq_restore(i64 noundef %0) #0 {
  %2 = alloca i64, align 8
  store i64 %0, ptr %2, align 8
  %3 = load i64, ptr %2, align 8
  %4 = call zeroext i1 @up_irq_enabled(i64 noundef %3)
  br i1 %4, label %5, label %6

5:                                                ; preds = %1
  call void @up_irq_enable()
  br label %6

6:                                                ; preds = %5, %1
  ret void
}

; Function Attrs: nounwind uwtable
define internal i64 @mempool_queue_lenth(ptr noundef %0) #0 {
  %2 = alloca ptr, align 8
  %3 = alloca ptr, align 8
  %4 = alloca i64, align 8
  store ptr %0, ptr %2, align 8
  %5 = load ptr, ptr %2, align 8
  %6 = getelementptr inbounds %struct.sq_queue_s, ptr %5, i32 0, i32 0
  %7 = load ptr, ptr %6, align 8
  store ptr %7, ptr %3, align 8
  store i64 0, ptr %4, align 8
  br label %8

8:                                                ; preds = %12, %1
  %9 = load ptr, ptr %3, align 8
  %10 = icmp ne ptr %9, null
  br i1 %10, label %11, label %18

11:                                               ; preds = %8
  br label %12

12:                                               ; preds = %11
  %13 = load ptr, ptr %3, align 8
  %14 = getelementptr inbounds %struct.sq_entry_s, ptr %13, i32 0, i32 0
  %15 = load ptr, ptr %14, align 8
  store ptr %15, ptr %3, align 8
  %16 = load i64, ptr %4, align 8
  %17 = add i64 %16, 1
  store i64 %17, ptr %4, align 8
  br label %8, !llvm.loop !8

18:                                               ; preds = %8
  %19 = load i64, ptr %4, align 8
  ret i64 %19
}

; Function Attrs: nounwind uwtable
define internal i64 @up_irq_save() #0 {
  %1 = alloca i64, align 8
  %2 = call i64 @irqflags()
  store i64 %2, ptr %1, align 8
  call void @up_irq_disable()
  %3 = load i64, ptr %1, align 8
  ret i64 %3
}

; Function Attrs: nounwind uwtable
define i64 @mempool_info_task(ptr noundef %0, ptr noundef %1) #0 {
  %3 = alloca %struct.mallinfo_task, align 4
  %4 = alloca ptr, align 8
  %5 = alloca ptr, align 8
  %6 = alloca i64, align 8
  %7 = alloca i64, align 8
  %8 = alloca i64, align 8
  store ptr %0, ptr %4, align 8
  store ptr %1, ptr %5, align 8
  %9 = load ptr, ptr %4, align 8
  %10 = getelementptr inbounds %struct.mempool_s, ptr %9, i32 0, i32 0
  %11 = load i64, ptr %10, align 8
  store i64 %11, ptr %6, align 8
  %12 = call i64 @up_irq_save()
  store i64 %12, ptr %7, align 8
  call void @llvm.memset.p0.i64(ptr align 4 %3, i8 0, i64 8, i1 false)
  %13 = load ptr, ptr %5, align 8
  %14 = getelementptr inbounds %struct.malltask, ptr %13, i32 0, i32 0
  %15 = load i32, ptr %14, align 4
  %16 = icmp eq i32 %15, -4
  br i1 %16, label %17, label %39

17:                                               ; preds = %2
  %18 = load ptr, ptr %4, align 8
  %19 = getelementptr inbounds %struct.mempool_s, ptr %18, i32 0, i32 9
  %20 = call i64 @mempool_queue_lenth(ptr noundef %19)
  %21 = load ptr, ptr %4, align 8
  %22 = getelementptr inbounds %struct.mempool_s, ptr %21, i32 0, i32 10
  %23 = call i64 @mempool_queue_lenth(ptr noundef %22)
  %24 = add i64 %20, %23
  store i64 %24, ptr %8, align 8
  %25 = load i64, ptr %8, align 8
  %26 = getelementptr inbounds %struct.mallinfo_task, ptr %3, i32 0, i32 0
  %27 = load i32, ptr %26, align 4
  %28 = sext i32 %27 to i64
  %29 = add i64 %28, %25
  %30 = trunc i64 %29 to i32
  store i32 %30, ptr %26, align 4
  %31 = load i64, ptr %8, align 8
  %32 = load i64, ptr %6, align 8
  %33 = mul i64 %31, %32
  %34 = getelementptr inbounds %struct.mallinfo_task, ptr %3, i32 0, i32 1
  %35 = load i32, ptr %34, align 4
  %36 = sext i32 %35 to i64
  %37 = add i64 %36, %33
  %38 = trunc i64 %37 to i32
  store i32 %38, ptr %34, align 4
  br label %64

39:                                               ; preds = %2
  %40 = load ptr, ptr %5, align 8
  %41 = getelementptr inbounds %struct.malltask, ptr %40, i32 0, i32 0
  %42 = load i32, ptr %41, align 4
  %43 = icmp eq i32 %42, -3
  br i1 %43, label %44, label %63

44:                                               ; preds = %39
  %45 = load ptr, ptr %4, align 8
  %46 = getelementptr inbounds %struct.mempool_s, ptr %45, i32 0, i32 12
  %47 = load i64, ptr %46, align 8
  %48 = getelementptr inbounds %struct.mallinfo_task, ptr %3, i32 0, i32 0
  %49 = load i32, ptr %48, align 4
  %50 = sext i32 %49 to i64
  %51 = add i64 %50, %47
  %52 = trunc i64 %51 to i32
  store i32 %52, ptr %48, align 4
  %53 = load ptr, ptr %4, align 8
  %54 = getelementptr inbounds %struct.mempool_s, ptr %53, i32 0, i32 12
  %55 = load i64, ptr %54, align 8
  %56 = load i64, ptr %6, align 8
  %57 = mul i64 %55, %56
  %58 = getelementptr inbounds %struct.mallinfo_task, ptr %3, i32 0, i32 1
  %59 = load i32, ptr %58, align 4
  %60 = sext i32 %59 to i64
  %61 = add i64 %60, %57
  %62 = trunc i64 %61 to i32
  store i32 %62, ptr %58, align 4
  br label %63

63:                                               ; preds = %44, %39
  br label %64

64:                                               ; preds = %63, %17
  %65 = load i64, ptr %7, align 8
  call void @up_irq_restore(i64 noundef %65)
  %66 = load i64, ptr %3, align 4
  ret i64 %66
}