; Function Attrs: nounwind uwtable
define i64 @mempool_info_task(ptr noundef readonly captures(none) %0, ptr noundef readonly captures(none) %1) local_unnamed_addr #0 {
  %3 = alloca i64, align 8
  %4 = load i64, ptr %0, align 8
  call void @llvm.lifetime.start.p0(i64 8, ptr nonnull %3)
  call void asm sideeffect "\09pushfq\0A\09popq $0\0A", "=*rm,~{memory},~{dirflag},~{fpsr},~{flags}"(ptr nonnull elementtype(i64) %3) #4, !srcloc !8
  %5 = load i64, ptr %3, align 8
  call void @llvm.lifetime.end.p0(i64 8, ptr nonnull %3)
  call void asm sideeffect "cli", "~{memory},~{dirflag},~{fpsr},~{flags}"() #4, !srcloc !9
  %6 = load i32, ptr %1, align 4
  switch i32 %6, label %20 [
    i32 -4, label %7
    i32 -3, label %16
  ]

7:                                                ; preds = %2
  %8 = getelementptr inbounds nuw i8, ptr %0, i64 72
  br label %9

9:                                                ; preds = %9, %7
  %.04.in.i = phi ptr [ %8, %7 ], [ %.04.i, %9 ]
  %.0.i = phi i64 [ 0, %7 ], [ %10, %9 ]
  %.04.i = load ptr, ptr %.04.in.i, align 8
  %.not.i = icmp eq ptr %.04.i, null
  %10 = add i64 %.0.i, 1
  br i1 %.not.i, label %mempool_queue_lenth.exit, label %9, !llvm.loop !11

mempool_queue_lenth.exit:                         ; preds = %9
  %11 = getelementptr inbounds nuw i8, ptr %0, i64 88
  br label %12

12:                                               ; preds = %12, %mempool_queue_lenth.exit
  %.04.in.i18 = phi ptr [ %11, %mempool_queue_lenth.exit ], [ %.04.i20, %12 ]
  %.0.i19 = phi i64 [ 0, %mempool_queue_lenth.exit ], [ %13, %12 ]
  %.04.i20 = load ptr, ptr %.04.in.i18, align 8
  %.not.i21 = icmp eq ptr %.04.i20, null
  %13 = add i64 %.0.i19, 1
  br i1 %.not.i21, label %mempool_queue_lenth.exit22, label %12, !llvm.loop !11

mempool_queue_lenth.exit22:                       ; preds = %12
  %14 = add i64 %.0.i19, %.0.i
  %15 = mul i64 %14, %4
  br label %20

16:                                               ; preds = %2
  %17 = getelementptr inbounds nuw i8, ptr %0, i64 120
  %18 = load i64, ptr %17, align 8
  %19 = mul i64 %18, %4
  br label %20

20:                                               ; preds = %2, %16, %mempool_queue_lenth.exit22
  %.sroa.6.0 = phi i64 [ %15, %mempool_queue_lenth.exit22 ], [ %19, %16 ], [ 0, %2 ]
  %.sroa.0.0 = phi i64 [ %14, %mempool_queue_lenth.exit22 ], [ %18, %16 ], [ 0, %2 ]
  %21 = and i64 %5, 512
  %.not.i23 = icmp eq i64 %21, 0
  br i1 %.not.i23, label %up_irq_restore.exit, label %22

22:                                               ; preds = %20
  call void asm sideeffect "sti", "~{memory},~{dirflag},~{fpsr},~{flags}"() #4, !srcloc !10
  br label %up_irq_restore.exit

up_irq_restore.exit:                              ; preds = %20, %22
  %.sroa.6.0.insert.ext = shl i64 %.sroa.6.0, 32
  %.sroa.0.0.insert.ext = and i64 %.sroa.0.0, 4294967295
  %.sroa.0.0.insert.insert = or disjoint i64 %.sroa.0.0.insert.ext, %.sroa.6.0.insert.ext
  ret i64 %.sroa.0.0.insert.insert
}